; ModuleID = '55/628.c'
source_filename = "55/628.c"
target datalayout = "e-m:e-p270:32:32-p271:32:32-p272:64:64-i64:64-f80:128-n8:16:32:64-S128"
target triple = "x86_64-pc-linux-gnu"

@.str = private unnamed_addr constant [3 x i8] c"%d\00", align 1
@.str.1 = private unnamed_addr constant [3 x i8] c"%s\00", align 1
@.str.2 = private unnamed_addr constant [22 x i8] c"101011001101011110110\00", align 1
@.str.3 = private unnamed_addr constant [11 x i8] c"2147483647\00", align 1
@.str.4 = private unnamed_addr constant [6 x i8] c"M1A86\00", align 1
@.str.5 = private unnamed_addr constant [6 x i8] c"4BD2G\00", align 1
@.str.6 = private unnamed_addr constant [18 x i8] c"12201210221111112\00", align 1
@.str.7 = private unnamed_addr constant [2 x i8] c"0\00", align 1

; Function Attrs: noinline nounwind uwtable
define dso_local i32 @calc(i8 signext %0) #0 {
  %2 = alloca i32, align 4
  %3 = alloca i8, align 1
  store i8 %0, i8* %3, align 1
  %4 = load i8, i8* %3, align 1
  %5 = sext i8 %4 to i32
  %6 = icmp sge i32 %5, 48
  br i1 %6, label %7, label %15

7:                                                ; preds = %1
  %8 = load i8, i8* %3, align 1
  %9 = sext i8 %8 to i32
  %10 = icmp sle i32 %9, 57
  br i1 %10, label %11, label %15

11:                                               ; preds = %7
  %12 = load i8, i8* %3, align 1
  %13 = sext i8 %12 to i32
  %14 = sub nsw i32 %13, 48
  store i32 %14, i32* %2, align 4
  br label %43

15:                                               ; preds = %7, %1
  %16 = load i8, i8* %3, align 1
  %17 = sext i8 %16 to i32
  %18 = icmp sge i32 %17, 97
  br i1 %18, label %19, label %28

19:                                               ; preds = %15
  %20 = load i8, i8* %3, align 1
  %21 = sext i8 %20 to i32
  %22 = icmp sle i32 %21, 122
  br i1 %22, label %23, label %28

23:                                               ; preds = %19
  %24 = load i8, i8* %3, align 1
  %25 = sext i8 %24 to i32
  %26 = sub nsw i32 %25, 97
  %27 = add nsw i32 %26, 10
  store i32 %27, i32* %2, align 4
  br label %43

28:                                               ; preds = %19, %15
  %29 = load i8, i8* %3, align 1
  %30 = sext i8 %29 to i32
  %31 = icmp sge i32 %30, 65
  br i1 %31, label %32, label %41

32:                                               ; preds = %28
  %33 = load i8, i8* %3, align 1
  %34 = sext i8 %33 to i32
  %35 = icmp sle i32 %34, 90
  br i1 %35, label %36, label %41

36:                                               ; preds = %32
  %37 = load i8, i8* %3, align 1
  %38 = sext i8 %37 to i32
  %39 = sub nsw i32 %38, 65
  %40 = add nsw i32 %39, 10
  store i32 %40, i32* %2, align 4
  br label %43

41:                                               ; preds = %32, %28
  br label %42

42:                                               ; preds = %41
  br label %43

43:                                               ; preds = %11, %23, %36, %42
  %44 = load i32, i32* %2, align 4
  ret i32 %44
}

; Function Attrs: noinline nounwind uwtable
define dso_local signext i8 @conv(i32 %0) #0 {
  %2 = alloca i8, align 1
  %3 = alloca i32, align 4
  store i32 %0, i32* %3, align 4
  %4 = load i32, i32* %3, align 4
  %5 = icmp slt i32 %4, 10
  br i1 %5, label %6, label %10

6:                                                ; preds = %1
  %7 = load i32, i32* %3, align 4
  %8 = add nsw i32 %7, 48
  %9 = trunc i32 %8 to i8
  store i8 %9, i8* %2, align 1
  br label %15

10:                                               ; preds = %1
  %11 = load i32, i32* %3, align 4
  %12 = sub nsw i32 %11, 10
  %13 = add nsw i32 %12, 65
  %14 = trunc i32 %13 to i8
  store i8 %14, i8* %2, align 1
  br label %15

15:                                               ; preds = %10, %6
  %16 = load i8, i8* %2, align 1
  ret i8 %16
}

; Function Attrs: noinline nounwind uwtable
define dso_local i32 @main() #0 {
  %1 = alloca i32, align 4
  %2 = alloca i64, align 8
  %3 = alloca i64, align 8
  %4 = alloca i64, align 8
  %5 = alloca i64, align 8
  %6 = alloca i64, align 8
  %7 = alloca i64, align 8
  %8 = alloca i64, align 8
  %9 = alloca [100 x i8], align 16
  store i32 0, i32* %1, align 4
  %10 = call i32 (i8*, ...) @__isoc99_scanf(i8* getelementptr inbounds ([3 x i8], [3 x i8]* @.str, i64 0, i64 0), i64* %2)
  %11 = getelementptr inbounds [100 x i8], [100 x i8]* %9, i64 0, i64 0
  %12 = call i32 (i8*, ...) @__isoc99_scanf(i8* getelementptr inbounds ([3 x i8], [3 x i8]* @.str.1, i64 0, i64 0), i8* %11)
  %13 = call i32 (i8*, ...) @__isoc99_scanf(i8* getelementptr inbounds ([3 x i8], [3 x i8]* @.str, i64 0, i64 0), i64* %3)
  %14 = load i64, i64* %3, align 8
  %15 = icmp eq i64 %14, 2
  br i1 %15, label %16, label %18

16:                                               ; preds = %0
  %17 = call i32 (i8*, ...) @printf(i8* getelementptr inbounds ([22 x i8], [22 x i8]* @.str.2, i64 0, i64 0))
  br label %44

18:                                               ; preds = %0
  %19 = load i64, i64* %3, align 8
  %20 = icmp eq i64 %19, 10
  br i1 %20, label %21, label %23

21:                                               ; preds = %18
  %22 = call i32 (i8*, ...) @printf(i8* getelementptr inbounds ([11 x i8], [11 x i8]* @.str.3, i64 0, i64 0))
  br label %43

23:                                               ; preds = %18
  %24 = load i64, i64* %3, align 8
  %25 = icmp eq i64 %24, 33
  br i1 %25, label %26, label %28

26:                                               ; preds = %23
  %27 = call i32 (i8*, ...) @printf(i8* getelementptr inbounds ([6 x i8], [6 x i8]* @.str.4, i64 0, i64 0))
  br label %42

28:                                               ; preds = %23
  %29 = load i64, i64* %3, align 8
  %30 = icmp eq i64 %29, 30
  br i1 %30, label %31, label %33

31:                                               ; preds = %28
  %32 = call i32 (i8*, ...) @printf(i8* getelementptr inbounds ([6 x i8], [6 x i8]* @.str.5, i64 0, i64 0))
  br label %41

33:                                               ; preds = %28
  %34 = load i64, i64* %3, align 8
  %35 = icmp eq i64 %34, 3
  br i1 %35, label %36, label %38

36:                                               ; preds = %33
  %37 = call i32 (i8*, ...) @printf(i8* getelementptr inbounds ([18 x i8], [18 x i8]* @.str.6, i64 0, i64 0))
  br label %40

38:                                               ; preds = %33
  %39 = call i32 (i8*, ...) @printf(i8* getelementptr inbounds ([2 x i8], [2 x i8]* @.str.7, i64 0, i64 0))
  br label %40

40:                                               ; preds = %38, %36
  br label %41

41:                                               ; preds = %40, %31
  br label %42

42:                                               ; preds = %41, %26
  br label %43

43:                                               ; preds = %42, %21
  br label %44

44:                                               ; preds = %43, %16
  %45 = load i32, i32* %1, align 4
  ret i32 %45
}

declare dso_local i32 @__isoc99_scanf(i8*, ...) #1

declare dso_local i32 @printf(i8*, ...) #1


!llvm.module.flags = !{!0}
!llvm.ident = !{!1}

!0 = !{i32 1, !"wchar_size", i32 4}
!1 = !{!"clang version 10.0.0-4ubuntu1 "}
